target datalayout = "e-m:e-p270:32:32-p271:32:32-p272:64:64-i64:64-i128:128-f80:128-n8:16:32:64-S128"
target triple = "x86_64-pc-linux-gnu"

%struct.aom_timing = type { i32, i32, i32, i32 }

@.str.10 = private unnamed_addr constant [65 x i8] c"num_units_in_display_tick and time_scale must be greater than 0.\00", align 1
@.str.11 = private unnamed_addr constant [55 x i8] c"num_ticks_per_picture_minus_1 cannot be (1 << 32) - 1.\00", align 1

; Function Attrs: nounwind uwtable
define hidden void @av1_read_timing_info_header(ptr noundef %0, ptr noundef %1, ptr noundef %2) #0 {
  %4 = alloca ptr, align 8
  %5 = alloca ptr, align 8
  %6 = alloca ptr, align 8
  %7 = alloca i32, align 4
  store ptr %0, ptr %4, align 8
  store ptr %1, ptr %5, align 8
  store ptr %2, ptr %6, align 8
  %8 = load ptr, ptr %6, align 8
  %9 = call i32 @aom_rb_read_unsigned_literal(ptr noundef %8, i32 noundef 32)
  %10 = load ptr, ptr %4, align 8
  %11 = getelementptr inbounds nuw %struct.aom_timing, ptr %10, i32 0, i32 0
  store i32 %9, ptr %11, align 4
  %12 = load ptr, ptr %6, align 8
  %13 = call i32 @aom_rb_read_unsigned_literal(ptr noundef %12, i32 noundef 32)
  %14 = load ptr, ptr %4, align 8
  %15 = getelementptr inbounds nuw %struct.aom_timing, ptr %14, i32 0, i32 1
  store i32 %13, ptr %15, align 4
  %16 = load ptr, ptr %4, align 8
  %17 = getelementptr inbounds nuw %struct.aom_timing, ptr %16, i32 0, i32 0
  %18 = load i32, ptr %17, align 4
  %19 = icmp eq i32 %18, 0
  br i1 %19, label %25, label %20

20:                                               ; preds = %3
  %21 = load ptr, ptr %4, align 8
  %22 = getelementptr inbounds nuw %struct.aom_timing, ptr %21, i32 0, i32 1
  %23 = load i32, ptr %22, align 4
  %24 = icmp eq i32 %23, 0
  br i1 %24, label %25, label %27

25:                                               ; preds = %20, %3
  %26 = load ptr, ptr %5, align 8
  call void (ptr, i32, ptr, ...) @aom_internal_error(ptr noundef %26, i32 noundef 5, ptr noundef @.str.10)
  br label %27

27:                                               ; preds = %25, %20
  %28 = load ptr, ptr %6, align 8
  %29 = call i32 @aom_rb_read_bit(ptr noundef %28)
  %30 = load ptr, ptr %4, align 8
  %31 = getelementptr inbounds nuw %struct.aom_timing, ptr %30, i32 0, i32 2
  store i32 %29, ptr %31, align 4
  %32 = load ptr, ptr %4, align 8
  %33 = getelementptr inbounds nuw %struct.aom_timing, ptr %32, i32 0, i32 2
  %34 = load i32, ptr %33, align 4
  %35 = icmp ne i32 %34, 0
  br i1 %35, label %36, label %48

36:                                               ; preds = %27
  %37 = load ptr, ptr %6, align 8
  %38 = call i32 @aom_rb_read_uvlc(ptr noundef %37)
  store i32 %38, ptr %7, align 4
  %39 = load i32, ptr %7, align 4
  %40 = icmp eq i32 %39, -1
  br i1 %40, label %41, label %43

41:                                               ; preds = %36
  %42 = load ptr, ptr %5, align 8
  call void (ptr, i32, ptr, ...) @aom_internal_error(ptr noundef %42, i32 noundef 5, ptr noundef @.str.11)
  br label %43

43:                                               ; preds = %41, %36
  %44 = load i32, ptr %7, align 4
  %45 = add i32 %44, 1
  %46 = load ptr, ptr %4, align 8
  %47 = getelementptr inbounds nuw %struct.aom_timing, ptr %46, i32 0, i32 3
  store i32 %45, ptr %47, align 4
  br label %48

48:                                               ; preds = %43, %27
  ret void
}