; Function Attrs: nounwind uwtable
define hidden void @av1_read_timing_info_header(ptr noundef captures(none) initializes((0, 12)) %0, ptr noundef %1, ptr noundef %2) local_unnamed_addr #0 {
  %4 = tail call i32 @aom_rb_read_unsigned_literal(ptr noundef %2, i32 noundef 32) #16
  store i32 %4, ptr %0, align 4
  %5 = tail call i32 @aom_rb_read_unsigned_literal(ptr noundef %2, i32 noundef 32) #16
  %6 = getelementptr inbounds nuw i8, ptr %0, i64 4
  store i32 %5, ptr %6, align 4
  %7 = load i32, ptr %0, align 4
  %8 = icmp eq i32 %7, 0
  %9 = icmp eq i32 %5, 0
  %or.cond = select i1 %8, i1 true, i1 %9
  br i1 %or.cond, label %10, label %11

10:                                               ; preds = %3
  tail call void (ptr, i32, ptr, ...) @aom_internal_error(ptr noundef %1, i32 noundef 5, ptr noundef nonnull @.str.10) #16
  br label %11

11:                                               ; preds = %3, %10
  %12 = tail call i32 @aom_rb_read_bit(ptr noundef %2) #16
  %13 = getelementptr inbounds nuw i8, ptr %0, i64 8
  store i32 %12, ptr %13, align 4
  %.not = icmp eq i32 %12, 0
  br i1 %.not, label %21, label %14

14:                                               ; preds = %11
  %15 = tail call i32 @aom_rb_read_uvlc(ptr noundef %2) #16
  %16 = icmp eq i32 %15, -1
  br i1 %16, label %17, label %18

17:                                               ; preds = %14
  tail call void (ptr, i32, ptr, ...) @aom_internal_error(ptr noundef %1, i32 noundef 5, ptr noundef nonnull @.str.11) #16
  br label %18

18:                                               ; preds = %17, %14
  %19 = add i32 %15, 1
  %20 = getelementptr inbounds nuw i8, ptr %0, i64 12
  store i32 %19, ptr %20, align 4
  br label %21

21:                                               ; preds = %18, %11
  ret void
}